target datalayout = "e-m:e-p270:32:32-p271:32:32-p272:64:64-i64:64-i128:128-f80:128-n8:16:32:64-S128"
target triple = "x86_64-pc-linux-gnu"

%struct.mp_buf = type { ptr, i64, i64 }

; Function Attrs: nounwind uwtable
define dso_local ptr @mp_realloc(ptr noundef %0, ptr noundef %1, i64 noundef %2, i64 noundef %3) #0 {
  %5 = alloca ptr, align 8
  %6 = alloca ptr, align 8
  %7 = alloca i64, align 8
  %8 = alloca i64, align 8
  %9 = alloca ptr, align 8
  %10 = alloca ptr, align 8
  store ptr %0, ptr %5, align 8, !tbaa !17
  store ptr %1, ptr %6, align 8, !tbaa !4
  store i64 %2, ptr %7, align 8, !tbaa !8
  store i64 %3, ptr %8, align 8, !tbaa !8
  call void @llvm.lifetime.start.p0(i64 8, ptr %9) #6
  store ptr null, ptr %9, align 8, !tbaa !4
  call void @llvm.lifetime.start.p0(i64 8, ptr %10) #6
  %11 = load ptr, ptr %5, align 8, !tbaa !17
  %12 = call ptr @lua_getallocf(ptr noundef %11, ptr noundef %10)
  store ptr %12, ptr %9, align 8, !tbaa !4
  %13 = load ptr, ptr %9, align 8, !tbaa !4
  %14 = load ptr, ptr %10, align 8, !tbaa !4
  %15 = load ptr, ptr %6, align 8, !tbaa !4
  %16 = load i64, ptr %7, align 8, !tbaa !8
  %17 = load i64, ptr %8, align 8, !tbaa !8
  %18 = call ptr %13(ptr noundef %14, ptr noundef %15, i64 noundef %16, i64 noundef %17)
  call void @llvm.lifetime.end.p0(i64 8, ptr %10) #6
  call void @llvm.lifetime.end.p0(i64 8, ptr %9) #6
  ret ptr %18
}

; Function Attrs: nounwind uwtable
define dso_local ptr @mp_buf_new(ptr noundef %0) #0 {
  %2 = alloca ptr, align 8
  %3 = alloca ptr, align 8
  store ptr %0, ptr %2, align 8, !tbaa !17
  call void @llvm.lifetime.start.p0(i64 8, ptr %3) #6
  store ptr null, ptr %3, align 8, !tbaa !19
  %4 = load ptr, ptr %2, align 8, !tbaa !17
  %5 = call ptr @mp_realloc(ptr noundef %4, ptr noundef null, i64 noundef 0, i64 noundef 24)
  store ptr %5, ptr %3, align 8, !tbaa !19
  %6 = load ptr, ptr %3, align 8, !tbaa !19
  %7 = getelementptr inbounds nuw %struct.mp_buf, ptr %6, i32 0, i32 0
  store ptr null, ptr %7, align 8, !tbaa !21
  %8 = load ptr, ptr %3, align 8, !tbaa !19
  %9 = getelementptr inbounds nuw %struct.mp_buf, ptr %8, i32 0, i32 2
  store i64 0, ptr %9, align 8, !tbaa !23
  %10 = load ptr, ptr %3, align 8, !tbaa !19
  %11 = getelementptr inbounds nuw %struct.mp_buf, ptr %10, i32 0, i32 1
  store i64 0, ptr %11, align 8, !tbaa !24
  %12 = load ptr, ptr %3, align 8, !tbaa !19
  call void @llvm.lifetime.end.p0(i64 8, ptr %3) #6
  ret ptr %12
}