; Function Attrs: nounwind uwtable
define dso_local noundef ptr @mp_buf_new(ptr noundef %0) local_unnamed_addr #2 {
  %2 = alloca ptr, align 8
  call void @llvm.lifetime.start.p0(i64 8, ptr nonnull %2) #10
  %3 = call ptr @lua_getallocf(ptr noundef %0, ptr noundef nonnull %2) #10
  %4 = load ptr, ptr %2, align 8, !tbaa !9
  %5 = call ptr %3(ptr noundef %4, ptr noundef null, i64 noundef 0, i64 noundef 24) #10
  call void @llvm.lifetime.end.p0(i64 8, ptr nonnull %2) #10
  call void @llvm.memset.p0.i64(ptr noundef nonnull align 8 dereferenceable(24) %5, i8 0, i64 24, i1 false)
  ret ptr %5
}